target datalayout = "e-m:e-p270:32:32-p271:32:32-p272:64:64-i64:64-i128:128-f80:128-n8:16:32:64-S128"
target triple = "x86_64-pc-linux-gnu"

%struct.SurfaceDataRasInfo = type { %struct.SurfaceDataBounds, ptr, i32, i32, i32, i32, ptr, ptr, ptr, ptr, ptr, ptr, i32, %union.anon.0 }
%struct.SurfaceDataBounds = type { i32, i32, i32, i32 }
%union.anon.0 = type { ptr, [56 x i8] }

; Function Attrs: nounwind uwtable
define hidden void @Index12GrayBicubicTransformHelper(ptr noundef %0, ptr noundef %1, i32 noundef %2, i64 noundef %3, i64 noundef %4, i64 noundef %5, i64 noundef %6) #0 {
  %8 = alloca ptr, align 8
  %9 = alloca ptr, align 8
  %10 = alloca i32, align 4
  %11 = alloca i64, align 8
  %12 = alloca i64, align 8
  %13 = alloca i64, align 8
  %14 = alloca i64, align 8
  %15 = alloca ptr, align 8
  %16 = alloca i32, align 4
  %17 = alloca i32, align 4
  %18 = alloca i32, align 4
  %19 = alloca i32, align 4
  %20 = alloca i32, align 4
  %21 = alloca ptr, align 8
  %22 = alloca i32, align 4
  %23 = alloca i32, align 4
  %24 = alloca i32, align 4
  %25 = alloca i32, align 4
  %26 = alloca i32, align 4
  %27 = alloca i32, align 4
  %28 = alloca i32, align 4
  %29 = alloca i32, align 4
  %30 = alloca i32, align 4
  %31 = alloca ptr, align 8
  store ptr %0, ptr %8, align 8
  store ptr %1, ptr %9, align 8
  store i32 %2, ptr %10, align 4
  store i64 %3, ptr %11, align 8
  store i64 %4, ptr %12, align 8
  store i64 %5, ptr %13, align 8
  store i64 %6, ptr %14, align 8
  %32 = load ptr, ptr %8, align 8
  %33 = getelementptr inbounds %struct.SurfaceDataRasInfo, ptr %32, i32 0, i32 4
  %34 = load i32, ptr %33, align 8
  store i32 %34, ptr %16, align 4
  %35 = load ptr, ptr %9, align 8
  %36 = load i32, ptr %10, align 4
  %37 = mul nsw i32 %36, 16
  %38 = sext i32 %37 to i64
  %39 = getelementptr inbounds i32, ptr %35, i64 %38
  store ptr %39, ptr %21, align 8
  %40 = load ptr, ptr %8, align 8
  %41 = getelementptr inbounds %struct.SurfaceDataRasInfo, ptr %40, i32 0, i32 0
  %42 = getelementptr inbounds %struct.SurfaceDataBounds, ptr %41, i32 0, i32 0
  %43 = load i32, ptr %42, align 8
  store i32 %43, ptr %17, align 4
  %44 = load ptr, ptr %8, align 8
  %45 = getelementptr inbounds %struct.SurfaceDataRasInfo, ptr %44, i32 0, i32 0
  %46 = getelementptr inbounds %struct.SurfaceDataBounds, ptr %45, i32 0, i32 2
  %47 = load i32, ptr %46, align 8
  %48 = load i32, ptr %17, align 4
  %49 = sub nsw i32 %47, %48
  store i32 %49, ptr %19, align 4
  %50 = load ptr, ptr %8, align 8
  %51 = getelementptr inbounds %struct.SurfaceDataRasInfo, ptr %50, i32 0, i32 0
  %52 = getelementptr inbounds %struct.SurfaceDataBounds, ptr %51, i32 0, i32 1
  %53 = load i32, ptr %52, align 4
  store i32 %53, ptr %18, align 4
  %54 = load ptr, ptr %8, align 8
  %55 = getelementptr inbounds %struct.SurfaceDataRasInfo, ptr %54, i32 0, i32 0
  %56 = getelementptr inbounds %struct.SurfaceDataBounds, ptr %55, i32 0, i32 3
  %57 = load i32, ptr %56, align 4
  %58 = load i32, ptr %18, align 4
  %59 = sub nsw i32 %57, %58
  store i32 %59, ptr %20, align 4
  %60 = load i64, ptr %11, align 8
  %61 = sub nsw i64 %60, 2147483648
  store i64 %61, ptr %11, align 8
  %62 = load i64, ptr %13, align 8
  %63 = sub nsw i64 %62, 2147483648
  store i64 %63, ptr %13, align 8
  %64 = load ptr, ptr %8, align 8
  %65 = getelementptr inbounds %struct.SurfaceDataRasInfo, ptr %64, i32 0, i32 6
  %66 = load ptr, ptr %65, align 8
  store ptr %66, ptr %15, align 8
  br label %67

67:                                               ; preds = %71, %7
  %68 = load ptr, ptr %9, align 8
  %69 = load ptr, ptr %21, align 8
  %70 = icmp ult ptr %68, %69
  br i1 %70, label %71, label %414

71:                                               ; preds = %67
  %72 = load i64, ptr %11, align 8
  %73 = ashr i64 %72, 32
  %74 = trunc i64 %73 to i32
  store i32 %74, ptr %22, align 4
  %75 = load i64, ptr %13, align 8
  %76 = ashr i64 %75, 32
  %77 = trunc i64 %76 to i32
  store i32 %77, ptr %23, align 4
  %78 = load i32, ptr %22, align 4
  %79 = sub nsw i32 0, %78
  %80 = ashr i32 %79, 31
  store i32 %80, ptr %24, align 4
  %81 = load i32, ptr %22, align 4
  %82 = add nsw i32 %81, 1
  %83 = load i32, ptr %19, align 4
  %84 = sub nsw i32 %82, %83
  %85 = lshr i32 %84, 31
  store i32 %85, ptr %25, align 4
  %86 = load i32, ptr %22, align 4
  %87 = add nsw i32 %86, 2
  %88 = load i32, ptr %19, align 4
  %89 = sub nsw i32 %87, %88
  %90 = lshr i32 %89, 31
  store i32 %90, ptr %26, align 4
  %91 = load i32, ptr %22, align 4
  %92 = ashr i32 %91, 31
  store i32 %92, ptr %30, align 4
  %93 = load i32, ptr %30, align 4
  %94 = load i32, ptr %22, align 4
  %95 = sub nsw i32 %94, %93
  store i32 %95, ptr %22, align 4
  %96 = load i32, ptr %30, align 4
  %97 = load i32, ptr %25, align 4
  %98 = add nsw i32 %97, %96
  store i32 %98, ptr %25, align 4
  %99 = load i32, ptr %25, align 4
  %100 = load i32, ptr %26, align 4
  %101 = add nsw i32 %100, %99
  store i32 %101, ptr %26, align 4
  %102 = load i32, ptr %23, align 4
  %103 = sub nsw i32 0, %102
  %104 = ashr i32 %103, 31
  %105 = load i32, ptr %16, align 4
  %106 = sub nsw i32 0, %105
  %107 = and i32 %104, %106
  store i32 %107, ptr %27, align 4
  %108 = load i32, ptr %23, align 4
  %109 = add nsw i32 %108, 1
  %110 = load i32, ptr %20, align 4
  %111 = sub nsw i32 %109, %110
  %112 = ashr i32 %111, 31
  %113 = load i32, ptr %16, align 4
  %114 = and i32 %112, %113
  store i32 %114, ptr %28, align 4
  %115 = load i32, ptr %23, align 4
  %116 = add nsw i32 %115, 2
  %117 = load i32, ptr %20, align 4
  %118 = sub nsw i32 %116, %117
  %119 = ashr i32 %118, 31
  %120 = load i32, ptr %16, align 4
  %121 = and i32 %119, %120
  store i32 %121, ptr %29, align 4
  %122 = load i32, ptr %23, align 4
  %123 = ashr i32 %122, 31
  store i32 %123, ptr %30, align 4
  %124 = load i32, ptr %30, align 4
  %125 = load i32, ptr %23, align 4
  %126 = sub nsw i32 %125, %124
  store i32 %126, ptr %23, align 4
  %127 = load i32, ptr %30, align 4
  %128 = load i32, ptr %16, align 4
  %129 = sub nsw i32 0, %128
  %130 = and i32 %127, %129
  %131 = load i32, ptr %28, align 4
  %132 = add nsw i32 %131, %130
  store i32 %132, ptr %28, align 4
  %133 = load i32, ptr %17, align 4
  %134 = load i32, ptr %22, align 4
  %135 = add nsw i32 %134, %133
  store i32 %135, ptr %22, align 4
  %136 = load ptr, ptr %8, align 8
  %137 = getelementptr inbounds %struct.SurfaceDataRasInfo, ptr %136, i32 0, i32 1
  %138 = load ptr, ptr %137, align 8
  %139 = ptrtoint ptr %138 to i64
  %140 = load i32, ptr %23, align 4
  %141 = load i32, ptr %18, align 4
  %142 = add nsw i32 %140, %141
  %143 = sext i32 %142 to i64
  %144 = load i32, ptr %16, align 4
  %145 = sext i32 %144 to i64
  %146 = mul nsw i64 %143, %145
  %147 = add nsw i64 %139, %146
  %148 = inttoptr i64 %147 to ptr
  store ptr %148, ptr %31, align 8
  %149 = load ptr, ptr %31, align 8
  %150 = ptrtoint ptr %149 to i64
  %151 = load i32, ptr %27, align 4
  %152 = sext i32 %151 to i64
  %153 = add nsw i64 %150, %152
  %154 = inttoptr i64 %153 to ptr
  store ptr %154, ptr %31, align 8
  %155 = load ptr, ptr %15, align 8
  %156 = load ptr, ptr %31, align 8
  %157 = load i32, ptr %22, align 4
  %158 = load i32, ptr %24, align 4
  %159 = add nsw i32 %157, %158
  %160 = sext i32 %159 to i64
  %161 = getelementptr inbounds i16, ptr %156, i64 %160
  %162 = load i16, ptr %161, align 2
  %163 = zext i16 %162 to i32
  %164 = and i32 %163, 4095
  %165 = sext i32 %164 to i64
  %166 = getelementptr inbounds i32, ptr %155, i64 %165
  %167 = load i32, ptr %166, align 4
  %168 = load ptr, ptr %9, align 8
  %169 = getelementptr inbounds i32, ptr %168, i64 0
  store i32 %167, ptr %169, align 4
  %170 = load ptr, ptr %15, align 8
  %171 = load ptr, ptr %31, align 8
  %172 = load i32, ptr %22, align 4
  %173 = sext i32 %172 to i64
  %174 = getelementptr inbounds i16, ptr %171, i64 %173
  %175 = load i16, ptr %174, align 2
  %176 = zext i16 %175 to i32
  %177 = and i32 %176, 4095
  %178 = sext i32 %177 to i64
  %179 = getelementptr inbounds i32, ptr %170, i64 %178
  %180 = load i32, ptr %179, align 4
  %181 = load ptr, ptr %9, align 8
  %182 = getelementptr inbounds i32, ptr %181, i64 1
  store i32 %180, ptr %182, align 4
  %183 = load ptr, ptr %15, align 8
  %184 = load ptr, ptr %31, align 8
  %185 = load i32, ptr %22, align 4
  %186 = load i32, ptr %25, align 4
  %187 = add nsw i32 %185, %186
  %188 = sext i32 %187 to i64
  %189 = getelementptr inbounds i16, ptr %184, i64 %188
  %190 = load i16, ptr %189, align 2
  %191 = zext i16 %190 to i32
  %192 = and i32 %191, 4095
  %193 = sext i32 %192 to i64
  %194 = getelementptr inbounds i32, ptr %183, i64 %193
  %195 = load i32, ptr %194, align 4
  %196 = load ptr, ptr %9, align 8
  %197 = getelementptr inbounds i32, ptr %196, i64 2
  store i32 %195, ptr %197, align 4
  %198 = load ptr, ptr %15, align 8
  %199 = load ptr, ptr %31, align 8
  %200 = load i32, ptr %22, align 4
  %201 = load i32, ptr %26, align 4
  %202 = add nsw i32 %200, %201
  %203 = sext i32 %202 to i64
  %204 = getelementptr inbounds i16, ptr %199, i64 %203
  %205 = load i16, ptr %204, align 2
  %206 = zext i16 %205 to i32
  %207 = and i32 %206, 4095
  %208 = sext i32 %207 to i64
  %209 = getelementptr inbounds i32, ptr %198, i64 %208
  %210 = load i32, ptr %209, align 4
  %211 = load ptr, ptr %9, align 8
  %212 = getelementptr inbounds i32, ptr %211, i64 3
  store i32 %210, ptr %212, align 4
  %213 = load ptr, ptr %31, align 8
  %214 = ptrtoint ptr %213 to i64
  %215 = load i32, ptr %27, align 4
  %216 = sub nsw i32 0, %215
  %217 = sext i32 %216 to i64
  %218 = add nsw i64 %214, %217
  %219 = inttoptr i64 %218 to ptr
  store ptr %219, ptr %31, align 8
  %220 = load ptr, ptr %15, align 8
  %221 = load ptr, ptr %31, align 8
  %222 = load i32, ptr %22, align 4
  %223 = load i32, ptr %24, align 4
  %224 = add nsw i32 %222, %223
  %225 = sext i32 %224 to i64
  %226 = getelementptr inbounds i16, ptr %221, i64 %225
  %227 = load i16, ptr %226, align 2
  %228 = zext i16 %227 to i32
  %229 = and i32 %228, 4095
  %230 = sext i32 %229 to i64
  %231 = getelementptr inbounds i32, ptr %220, i64 %230
  %232 = load i32, ptr %231, align 4
  %233 = load ptr, ptr %9, align 8
  %234 = getelementptr inbounds i32, ptr %233, i64 4
  store i32 %232, ptr %234, align 4
  %235 = load ptr, ptr %15, align 8
  %236 = load ptr, ptr %31, align 8
  %237 = load i32, ptr %22, align 4
  %238 = sext i32 %237 to i64
  %239 = getelementptr inbounds i16, ptr %236, i64 %238
  %240 = load i16, ptr %239, align 2
  %241 = zext i16 %240 to i32
  %242 = and i32 %241, 4095
  %243 = sext i32 %242 to i64
  %244 = getelementptr inbounds i32, ptr %235, i64 %243
  %245 = load i32, ptr %244, align 4
  %246 = load ptr, ptr %9, align 8
  %247 = getelementptr inbounds i32, ptr %246, i64 5
  store i32 %245, ptr %247, align 4
  %248 = load ptr, ptr %15, align 8
  %249 = load ptr, ptr %31, align 8
  %250 = load i32, ptr %22, align 4
  %251 = load i32, ptr %25, align 4
  %252 = add nsw i32 %250, %251
  %253 = sext i32 %252 to i64
  %254 = getelementptr inbounds i16, ptr %249, i64 %253
  %255 = load i16, ptr %254, align 2
  %256 = zext i16 %255 to i32
  %257 = and i32 %256, 4095
  %258 = sext i32 %257 to i64
  %259 = getelementptr inbounds i32, ptr %248, i64 %258
  %260 = load i32, ptr %259, align 4
  %261 = load ptr, ptr %9, align 8
  %262 = getelementptr inbounds i32, ptr %261, i64 6
  store i32 %260, ptr %262, align 4
  %263 = load ptr, ptr %15, align 8
  %264 = load ptr, ptr %31, align 8
  %265 = load i32, ptr %22, align 4
  %266 = load i32, ptr %26, align 4
  %267 = add nsw i32 %265, %266
  %268 = sext i32 %267 to i64
  %269 = getelementptr inbounds i16, ptr %264, i64 %268
  %270 = load i16, ptr %269, align 2
  %271 = zext i16 %270 to i32
  %272 = and i32 %271, 4095
  %273 = sext i32 %272 to i64
  %274 = getelementptr inbounds i32, ptr %263, i64 %273
  %275 = load i32, ptr %274, align 4
  %276 = load ptr, ptr %9, align 8
  %277 = getelementptr inbounds i32, ptr %276, i64 7
  store i32 %275, ptr %277, align 4
  %278 = load ptr, ptr %31, align 8
  %279 = ptrtoint ptr %278 to i64
  %280 = load i32, ptr %28, align 4
  %281 = sext i32 %280 to i64
  %282 = add nsw i64 %279, %281
  %283 = inttoptr i64 %282 to ptr
  store ptr %283, ptr %31, align 8
  %284 = load ptr, ptr %15, align 8
  %285 = load ptr, ptr %31, align 8
  %286 = load i32, ptr %22, align 4
  %287 = load i32, ptr %24, align 4
  %288 = add nsw i32 %286, %287
  %289 = sext i32 %288 to i64
  %290 = getelementptr inbounds i16, ptr %285, i64 %289
  %291 = load i16, ptr %290, align 2
  %292 = zext i16 %291 to i32
  %293 = and i32 %292, 4095
  %294 = sext i32 %293 to i64
  %295 = getelementptr inbounds i32, ptr %284, i64 %294
  %296 = load i32, ptr %295, align 4
  %297 = load ptr, ptr %9, align 8
  %298 = getelementptr inbounds i32, ptr %297, i64 8
  store i32 %296, ptr %298, align 4
  %299 = load ptr, ptr %15, align 8
  %300 = load ptr, ptr %31, align 8
  %301 = load i32, ptr %22, align 4
  %302 = sext i32 %301 to i64
  %303 = getelementptr inbounds i16, ptr %300, i64 %302
  %304 = load i16, ptr %303, align 2
  %305 = zext i16 %304 to i32
  %306 = and i32 %305, 4095
  %307 = sext i32 %306 to i64
  %308 = getelementptr inbounds i32, ptr %299, i64 %307
  %309 = load i32, ptr %308, align 4
  %310 = load ptr, ptr %9, align 8
  %311 = getelementptr inbounds i32, ptr %310, i64 9
  store i32 %309, ptr %311, align 4
  %312 = load ptr, ptr %15, align 8
  %313 = load ptr, ptr %31, align 8
  %314 = load i32, ptr %22, align 4
  %315 = load i32, ptr %25, align 4
  %316 = add nsw i32 %314, %315
  %317 = sext i32 %316 to i64
  %318 = getelementptr inbounds i16, ptr %313, i64 %317
  %319 = load i16, ptr %318, align 2
  %320 = zext i16 %319 to i32
  %321 = and i32 %320, 4095
  %322 = sext i32 %321 to i64
  %323 = getelementptr inbounds i32, ptr %312, i64 %322
  %324 = load i32, ptr %323, align 4
  %325 = load ptr, ptr %9, align 8
  %326 = getelementptr inbounds i32, ptr %325, i64 10
  store i32 %324, ptr %326, align 4
  %327 = load ptr, ptr %15, align 8
  %328 = load ptr, ptr %31, align 8
  %329 = load i32, ptr %22, align 4
  %330 = load i32, ptr %26, align 4
  %331 = add nsw i32 %329, %330
  %332 = sext i32 %331 to i64
  %333 = getelementptr inbounds i16, ptr %328, i64 %332
  %334 = load i16, ptr %333, align 2
  %335 = zext i16 %334 to i32
  %336 = and i32 %335, 4095
  %337 = sext i32 %336 to i64
  %338 = getelementptr inbounds i32, ptr %327, i64 %337
  %339 = load i32, ptr %338, align 4
  %340 = load ptr, ptr %9, align 8
  %341 = getelementptr inbounds i32, ptr %340, i64 11
  store i32 %339, ptr %341, align 4
  %342 = load ptr, ptr %31, align 8
  %343 = ptrtoint ptr %342 to i64
  %344 = load i32, ptr %29, align 4
  %345 = sext i32 %344 to i64
  %346 = add nsw i64 %343, %345
  %347 = inttoptr i64 %346 to ptr
  store ptr %347, ptr %31, align 8
  %348 = load ptr, ptr %15, align 8
  %349 = load ptr, ptr %31, align 8
  %350 = load i32, ptr %22, align 4
  %351 = load i32, ptr %24, align 4
  %352 = add nsw i32 %350, %351
  %353 = sext i32 %352 to i64
  %354 = getelementptr inbounds i16, ptr %349, i64 %353
  %355 = load i16, ptr %354, align 2
  %356 = zext i16 %355 to i32
  %357 = and i32 %356, 4095
  %358 = sext i32 %357 to i64
  %359 = getelementptr inbounds i32, ptr %348, i64 %358
  %360 = load i32, ptr %359, align 4
  %361 = load ptr, ptr %9, align 8
  %362 = getelementptr inbounds i32, ptr %361, i64 12
  store i32 %360, ptr %362, align 4
  %363 = load ptr, ptr %15, align 8
  %364 = load ptr, ptr %31, align 8
  %365 = load i32, ptr %22, align 4
  %366 = sext i32 %365 to i64
  %367 = getelementptr inbounds i16, ptr %364, i64 %366
  %368 = load i16, ptr %367, align 2
  %369 = zext i16 %368 to i32
  %370 = and i32 %369, 4095
  %371 = sext i32 %370 to i64
  %372 = getelementptr inbounds i32, ptr %363, i64 %371
  %373 = load i32, ptr %372, align 4
  %374 = load ptr, ptr %9, align 8
  %375 = getelementptr inbounds i32, ptr %374, i64 13
  store i32 %373, ptr %375, align 4
  %376 = load ptr, ptr %15, align 8
  %377 = load ptr, ptr %31, align 8
  %378 = load i32, ptr %22, align 4
  %379 = load i32, ptr %25, align 4
  %380 = add nsw i32 %378, %379
  %381 = sext i32 %380 to i64
  %382 = getelementptr inbounds i16, ptr %377, i64 %381
  %383 = load i16, ptr %382, align 2
  %384 = zext i16 %383 to i32
  %385 = and i32 %384, 4095
  %386 = sext i32 %385 to i64
  %387 = getelementptr inbounds i32, ptr %376, i64 %386
  %388 = load i32, ptr %387, align 4
  %389 = load ptr, ptr %9, align 8
  %390 = getelementptr inbounds i32, ptr %389, i64 14
  store i32 %388, ptr %390, align 4
  %391 = load ptr, ptr %15, align 8
  %392 = load ptr, ptr %31, align 8
  %393 = load i32, ptr %22, align 4
  %394 = load i32, ptr %26, align 4
  %395 = add nsw i32 %393, %394
  %396 = sext i32 %395 to i64
  %397 = getelementptr inbounds i16, ptr %392, i64 %396
  %398 = load i16, ptr %397, align 2
  %399 = zext i16 %398 to i32
  %400 = and i32 %399, 4095
  %401 = sext i32 %400 to i64
  %402 = getelementptr inbounds i32, ptr %391, i64 %401
  %403 = load i32, ptr %402, align 4
  %404 = load ptr, ptr %9, align 8
  %405 = getelementptr inbounds i32, ptr %404, i64 15
  store i32 %403, ptr %405, align 4
  %406 = load ptr, ptr %9, align 8
  %407 = getelementptr inbounds i32, ptr %406, i64 16
  store ptr %407, ptr %9, align 8
  %408 = load i64, ptr %12, align 8
  %409 = load i64, ptr %11, align 8
  %410 = add nsw i64 %409, %408
  store i64 %410, ptr %11, align 8
  %411 = load i64, ptr %14, align 8
  %412 = load i64, ptr %13, align 8
  %413 = add nsw i64 %412, %411
  store i64 %413, ptr %13, align 8
  br label %67, !llvm.loop !77

414:                                              ; preds = %67
  ret void
}