; Function Attrs: nofree norecurse nosync nounwind memory(readwrite, inaccessiblemem: none) uwtable
define hidden void @Index12GrayBicubicTransformHelper(ptr nocapture noundef readonly %0, ptr noundef writeonly %1, i32 noundef %2, i64 noundef %3, i64 noundef %4, i64 noundef %5, i64 noundef %6) #0 {
  %8 = getelementptr inbounds i8, ptr %0, i64 32
  %9 = load i32, ptr %8, align 8
  %10 = shl nsw i32 %2, 4
  %11 = sext i32 %10 to i64
  %12 = getelementptr inbounds i32, ptr %1, i64 %11
  %13 = load i32, ptr %0, align 8
  %14 = getelementptr inbounds i8, ptr %0, i64 8
  %15 = load i32, ptr %14, align 8
  %16 = sub nsw i32 %15, %13
  %17 = getelementptr inbounds i8, ptr %0, i64 4
  %18 = load i32, ptr %17, align 4
  %19 = getelementptr inbounds i8, ptr %0, i64 12
  %20 = load i32, ptr %19, align 4
  %21 = sub nsw i32 %20, %18
  %22 = getelementptr inbounds i8, ptr %0, i64 40
  %23 = load ptr, ptr %22, align 8
  %24 = icmp sgt i32 %2, 0
  br i1 %24, label %.lr.ph, label %._crit_edge

.lr.ph:                                           ; preds = %7
  %25 = add nsw i64 %5, -2147483648
  %26 = add nsw i64 %3, -2147483648
  %27 = sub nsw i32 0, %9
  %28 = getelementptr inbounds i8, ptr %0, i64 16
  %29 = sext i32 %9 to i64
  br label %30

30:                                               ; preds = %.lr.ph, %30
  %.0140 = phi ptr [ %1, %.lr.ph ], [ %195, %30 ]
  %.0136139 = phi i64 [ %26, %.lr.ph ], [ %196, %30 ]
  %.0137138 = phi i64 [ %25, %.lr.ph ], [ %197, %30 ]
  %31 = lshr i64 %.0136139, 32
  %32 = trunc nuw i64 %31 to i32
  %33 = lshr i64 %.0137138, 32
  %34 = trunc nuw i64 %33 to i32
  %35 = icmp sgt i32 %32, 0
  %36 = sext i1 %35 to i32
  %37 = add nsw i32 %32, 1
  %38 = icmp slt i32 %37, %16
  %39 = zext i1 %38 to i32
  %40 = add nsw i32 %32, 2
  %41 = icmp slt i32 %40, %16
  %42 = zext i1 %41 to i32
  %43 = ashr i32 %32, 31
  %44 = sub nsw i32 %32, %43
  %45 = add nsw i32 %43, %39
  %46 = icmp sgt i32 %34, 0
  %47 = select i1 %46, i32 %27, i32 0
  %48 = add nsw i32 %34, 1
  %49 = icmp slt i32 %48, %21
  %50 = select i1 %49, i32 %9, i32 0
  %51 = add nsw i32 %34, 2
  %52 = icmp slt i32 %51, %21
  %53 = select i1 %52, i32 %9, i32 0
  %.neg141 = lshr i32 %34, 31
  %isneg = icmp slt i64 %.0137138, 0
  %54 = select i1 %isneg, i32 %27, i32 0
  %55 = add nsw i32 %50, %54
  %56 = add nsw i32 %44, %13
  %57 = load ptr, ptr %28, align 8
  %58 = ptrtoint ptr %57 to i64
  %59 = add i32 %18, %34
  %60 = add i32 %59, %.neg141
  %61 = sext i32 %60 to i64
  %62 = mul nsw i64 %61, %29
  %63 = sext i32 %47 to i64
  %64 = add nsw i64 %62, %63
  %65 = add i64 %64, %58
  %66 = inttoptr i64 %65 to ptr
  %67 = add nsw i32 %56, %36
  %68 = sext i32 %67 to i64
  %69 = getelementptr inbounds i16, ptr %66, i64 %68
  %70 = load i16, ptr %69, align 2
  %71 = and i16 %70, 4095
  %72 = zext nneg i16 %71 to i64
  %73 = getelementptr inbounds i32, ptr %23, i64 %72
  %74 = load i32, ptr %73, align 4
  store i32 %74, ptr %.0140, align 4
  %75 = sext i32 %56 to i64
  %76 = getelementptr inbounds i16, ptr %66, i64 %75
  %77 = load i16, ptr %76, align 2
  %78 = and i16 %77, 4095
  %79 = zext nneg i16 %78 to i64
  %80 = getelementptr inbounds i32, ptr %23, i64 %79
  %81 = load i32, ptr %80, align 4
  %82 = getelementptr inbounds i8, ptr %.0140, i64 4
  store i32 %81, ptr %82, align 4
  %83 = add i32 %45, %56
  %84 = sext i32 %83 to i64
  %85 = getelementptr inbounds i16, ptr %66, i64 %84
  %86 = load i16, ptr %85, align 2
  %87 = and i16 %86, 4095
  %88 = zext nneg i16 %87 to i64
  %89 = getelementptr inbounds i32, ptr %23, i64 %88
  %90 = load i32, ptr %89, align 4
  %91 = getelementptr inbounds i8, ptr %.0140, i64 8
  store i32 %90, ptr %91, align 4
  %92 = add i32 %83, %42
  %93 = sext i32 %92 to i64
  %94 = getelementptr inbounds i16, ptr %66, i64 %93
  %95 = load i16, ptr %94, align 2
  %96 = and i16 %95, 4095
  %97 = zext nneg i16 %96 to i64
  %98 = getelementptr inbounds i32, ptr %23, i64 %97
  %99 = load i32, ptr %98, align 4
  %100 = getelementptr inbounds i8, ptr %.0140, i64 12
  store i32 %99, ptr %100, align 4
  %101 = sub nsw i32 0, %47
  %102 = sext i32 %101 to i64
  %103 = add nsw i64 %65, %102
  %104 = inttoptr i64 %103 to ptr
  %105 = getelementptr inbounds i16, ptr %104, i64 %68
  %106 = load i16, ptr %105, align 2
  %107 = and i16 %106, 4095
  %108 = zext nneg i16 %107 to i64
  %109 = getelementptr inbounds i32, ptr %23, i64 %108
  %110 = load i32, ptr %109, align 4
  %111 = getelementptr inbounds i8, ptr %.0140, i64 16
  store i32 %110, ptr %111, align 4
  %112 = getelementptr inbounds i16, ptr %104, i64 %75
  %113 = load i16, ptr %112, align 2
  %114 = and i16 %113, 4095
  %115 = zext nneg i16 %114 to i64
  %116 = getelementptr inbounds i32, ptr %23, i64 %115
  %117 = load i32, ptr %116, align 4
  %118 = getelementptr inbounds i8, ptr %.0140, i64 20
  store i32 %117, ptr %118, align 4
  %119 = getelementptr inbounds i16, ptr %104, i64 %84
  %120 = load i16, ptr %119, align 2
  %121 = and i16 %120, 4095
  %122 = zext nneg i16 %121 to i64
  %123 = getelementptr inbounds i32, ptr %23, i64 %122
  %124 = load i32, ptr %123, align 4
  %125 = getelementptr inbounds i8, ptr %.0140, i64 24
  store i32 %124, ptr %125, align 4
  %126 = getelementptr inbounds i16, ptr %104, i64 %93
  %127 = load i16, ptr %126, align 2
  %128 = and i16 %127, 4095
  %129 = zext nneg i16 %128 to i64
  %130 = getelementptr inbounds i32, ptr %23, i64 %129
  %131 = load i32, ptr %130, align 4
  %132 = getelementptr inbounds i8, ptr %.0140, i64 28
  store i32 %131, ptr %132, align 4
  %133 = sext i32 %55 to i64
  %134 = add nsw i64 %103, %133
  %135 = inttoptr i64 %134 to ptr
  %136 = getelementptr inbounds i16, ptr %135, i64 %68
  %137 = load i16, ptr %136, align 2
  %138 = and i16 %137, 4095
  %139 = zext nneg i16 %138 to i64
  %140 = getelementptr inbounds i32, ptr %23, i64 %139
  %141 = load i32, ptr %140, align 4
  %142 = getelementptr inbounds i8, ptr %.0140, i64 32
  store i32 %141, ptr %142, align 4
  %143 = getelementptr inbounds i16, ptr %135, i64 %75
  %144 = load i16, ptr %143, align 2
  %145 = and i16 %144, 4095
  %146 = zext nneg i16 %145 to i64
  %147 = getelementptr inbounds i32, ptr %23, i64 %146
  %148 = load i32, ptr %147, align 4
  %149 = getelementptr inbounds i8, ptr %.0140, i64 36
  store i32 %148, ptr %149, align 4
  %150 = getelementptr inbounds i16, ptr %135, i64 %84
  %151 = load i16, ptr %150, align 2
  %152 = and i16 %151, 4095
  %153 = zext nneg i16 %152 to i64
  %154 = getelementptr inbounds i32, ptr %23, i64 %153
  %155 = load i32, ptr %154, align 4
  %156 = getelementptr inbounds i8, ptr %.0140, i64 40
  store i32 %155, ptr %156, align 4
  %157 = getelementptr inbounds i16, ptr %135, i64 %93
  %158 = load i16, ptr %157, align 2
  %159 = and i16 %158, 4095
  %160 = zext nneg i16 %159 to i64
  %161 = getelementptr inbounds i32, ptr %23, i64 %160
  %162 = load i32, ptr %161, align 4
  %163 = getelementptr inbounds i8, ptr %.0140, i64 44
  store i32 %162, ptr %163, align 4
  %164 = sext i32 %53 to i64
  %165 = add nsw i64 %134, %164
  %166 = inttoptr i64 %165 to ptr
  %167 = getelementptr inbounds i16, ptr %166, i64 %68
  %168 = load i16, ptr %167, align 2
  %169 = and i16 %168, 4095
  %170 = zext nneg i16 %169 to i64
  %171 = getelementptr inbounds i32, ptr %23, i64 %170
  %172 = load i32, ptr %171, align 4
  %173 = getelementptr inbounds i8, ptr %.0140, i64 48
  store i32 %172, ptr %173, align 4
  %174 = getelementptr inbounds i16, ptr %166, i64 %75
  %175 = load i16, ptr %174, align 2
  %176 = and i16 %175, 4095
  %177 = zext nneg i16 %176 to i64
  %178 = getelementptr inbounds i32, ptr %23, i64 %177
  %179 = load i32, ptr %178, align 4
  %180 = getelementptr inbounds i8, ptr %.0140, i64 52
  store i32 %179, ptr %180, align 4
  %181 = getelementptr inbounds i16, ptr %166, i64 %84
  %182 = load i16, ptr %181, align 2
  %183 = and i16 %182, 4095
  %184 = zext nneg i16 %183 to i64
  %185 = getelementptr inbounds i32, ptr %23, i64 %184
  %186 = load i32, ptr %185, align 4
  %187 = getelementptr inbounds i8, ptr %.0140, i64 56
  store i32 %186, ptr %187, align 4
  %188 = getelementptr inbounds i16, ptr %166, i64 %93
  %189 = load i16, ptr %188, align 2
  %190 = and i16 %189, 4095
  %191 = zext nneg i16 %190 to i64
  %192 = getelementptr inbounds i32, ptr %23, i64 %191
  %193 = load i32, ptr %192, align 4
  %194 = getelementptr inbounds i8, ptr %.0140, i64 60
  store i32 %193, ptr %194, align 4
  %195 = getelementptr inbounds i8, ptr %.0140, i64 64
  %196 = add nsw i64 %.0136139, %4
  %197 = add nsw i64 %.0137138, %6
  %198 = icmp ult ptr %195, %12
  br i1 %198, label %30, label %._crit_edge, !llvm.loop !76

._crit_edge:                                      ; preds = %30, %7
  ret void
}